target datalayout = "e-m:e-p270:32:32-p271:32:32-p272:64:64-i64:64-i128:128-f80:128-n8:16:32:64-S128"
target triple = "x86_64-pc-linux-gnu"

%class.anon.19 = type { i8 }

@.str.9 = private unnamed_addr constant [140 x i8] c"generated/home/dtcxzyw/WorkSpace/Projects/compilers/llvm-opt-benchmark/bench/gromacs/gromacs/src/gromacs/commandline/cmdlinehelpcontext.cpp\00", align 1
@_ZN3gmx12_GLOBAL__N_115g_globalContextE = internal global ptr null, align 8
@.str.10 = private unnamed_addr constant [27 x i8] c"g_globalContext == nullptr\00", align 1
@.str.11 = private unnamed_addr constant [34 x i8] c"Global context set more than once\00", align 1

; Function Attrs: inlinehint mustprogress uwtable
define internal void @"_ZZN3gmx28GlobalCommandLineHelpContextC1ERKNS_22CommandLineHelpContextEENK3$_0clEv"(ptr noundef nonnull align 1 dereferenceable(1) %0) #7 align 2 {
  %2 = alloca ptr, align 8
  store ptr %0, ptr %2, align 8, !tbaa !88
  call void @_ZN3gmx8internal13assertHandlerEPKcS2_S2_S2_i(ptr noundef @.str.10, ptr noundef @.str.11, ptr noundef @"__PRETTY_FUNCTION__._ZZN3gmx28GlobalCommandLineHelpContextC1ERKNS_22CommandLineHelpContextEENK3$_0clEv", ptr noundef @.str.9, i32 noundef 195) #17
  unreachable
}

; Function Attrs: mustprogress uwtable
define void @_ZN3gmx28GlobalCommandLineHelpContextC2ERKNS_22CommandLineHelpContextE(ptr noundef nonnull align 1 dereferenceable(1) %0, ptr noundef nonnull align 8 dereferenceable(8) %1) unnamed_addr #0 align 2 {
  %3 = alloca ptr, align 8
  %4 = alloca ptr, align 8
  %5 = alloca %class.anon.19, align 1
  store ptr %0, ptr %3, align 8, !tbaa !89
  store ptr %1, ptr %4, align 8, !tbaa !4
  %6 = load ptr, ptr @_ZN3gmx12_GLOBAL__N_115g_globalContextE, align 8, !tbaa !4
  %7 = icmp eq ptr %6, null
  call void @llvm.lifetime.start.p0(i64 1, ptr %5) #14
  br i1 %7, label %8, label %9

8:                                                ; preds = %2
  br label %10

9:                                                ; preds = %2
  call void @"_ZZN3gmx28GlobalCommandLineHelpContextC1ERKNS_22CommandLineHelpContextEENK3$_0clEv"(ptr noundef nonnull align 1 dereferenceable(1) %5)
  br label %10

10:                                               ; preds = %9, %8
  call void @llvm.lifetime.end.p0(i64 1, ptr %5) #14
  %11 = load ptr, ptr %4, align 8, !tbaa !4
  store ptr %11, ptr @_ZN3gmx12_GLOBAL__N_115g_globalContextE, align 8, !tbaa !4
  ret void
}