; Function Attrs: mustprogress uwtable
define void @_ZN3gmx28GlobalCommandLineHelpContextC2ERKNS_22CommandLineHelpContextE(ptr nonnull readnone align 1 captures(none) %0, ptr noundef nonnull align 8 dereferenceable(8) %1) unnamed_addr #0 align 2 {
  %3 = load ptr, ptr @_ZN3gmx12_GLOBAL__N_115g_globalContextE, align 8, !tbaa !36
  %4 = icmp eq ptr %3, null
  br i1 %4, label %6, label %5

5:                                                ; preds = %2
  tail call void @_ZN3gmx8internal13assertHandlerEPKcS2_S2_S2_i(ptr noundef nonnull @.str.10, ptr noundef nonnull @.str.11, ptr noundef nonnull @"__PRETTY_FUNCTION__._ZZN3gmx28GlobalCommandLineHelpContextC1ERKNS_22CommandLineHelpContextEENK3$_0clEv", ptr noundef nonnull @.str.9, i32 noundef 195) #21
  unreachable

6:                                                ; preds = %2
  store ptr %1, ptr @_ZN3gmx12_GLOBAL__N_115g_globalContextE, align 8, !tbaa !36
  ret void
}